target datalayout = "e-m:e-p270:32:32-p271:32:32-p272:64:64-i64:64-i128:128-f80:128-n8:16:32:64-S128"
target triple = "x86_64-pc-linux-gnu"

%struct.evp_pkey_asn1_method_st = type { i32, i32, i64, ptr, ptr, ptr, ptr, ptr, ptr, ptr, ptr, ptr, ptr, ptr, ptr, ptr, ptr, ptr, ptr, ptr, ptr, ptr, ptr, ptr, ptr, ptr, ptr, ptr, ptr, ptr, ptr, ptr, ptr, ptr, ptr, ptr, ptr, ptr, ptr, ptr, ptr }
%struct.evp_pkey_st = type { i32, i32, ptr, ptr, ptr, %union.legacy_pkey_st, %union.legacy_pkey_st, %struct.CRYPTO_REF_COUNT, ptr, ptr, i32, i8, %struct.crypto_ex_data_st, ptr, ptr, i64, ptr, i64, %struct.anon }
%union.legacy_pkey_st = type { ptr }
%struct.CRYPTO_REF_COUNT = type { i32 }
%struct.crypto_ex_data_st = type { ptr, ptr }
%struct.anon = type { i32, i32, i32 }
%struct.ecx_key_st = type { ptr, ptr, i8, [57 x i8], ptr, i64, i32, %struct.CRYPTO_REF_COUNT }

; Function Attrs: nounwind uwtable
define internal i32 @ecx_pub_cmp(ptr noundef %0, ptr noundef %1) #0 {
  %3 = alloca i32, align 4
  %4 = alloca ptr, align 8
  %5 = alloca ptr, align 8
  %6 = alloca ptr, align 8
  %7 = alloca ptr, align 8
  %8 = alloca i32, align 4
  store ptr %0, ptr %4, align 8, !tbaa !3
  store ptr %1, ptr %5, align 8, !tbaa !3
  call void @llvm.lifetime.start.p0(i64 8, ptr %6) #4
  %9 = load ptr, ptr %4, align 8, !tbaa !3
  %10 = getelementptr inbounds nuw %struct.evp_pkey_st, ptr %9, i32 0, i32 5
  %11 = load ptr, ptr %10, align 8, !tbaa !33
  store ptr %11, ptr %6, align 8, !tbaa !31
  call void @llvm.lifetime.start.p0(i64 8, ptr %7) #4
  %12 = load ptr, ptr %5, align 8, !tbaa !3
  %13 = getelementptr inbounds nuw %struct.evp_pkey_st, ptr %12, i32 0, i32 5
  %14 = load ptr, ptr %13, align 8, !tbaa !33
  store ptr %14, ptr %7, align 8, !tbaa !31
  %15 = load ptr, ptr %6, align 8, !tbaa !31
  %16 = icmp eq ptr %15, null
  br i1 %16, label %20, label %17

17:                                               ; preds = %2
  %18 = load ptr, ptr %7, align 8, !tbaa !31
  %19 = icmp eq ptr %18, null
  br i1 %19, label %20, label %21

20:                                               ; preds = %17, %2
  store i32 -2, ptr %3, align 4
  store i32 1, ptr %8, align 4
  br label %56

21:                                               ; preds = %17
  %22 = load ptr, ptr %6, align 8, !tbaa !31
  %23 = getelementptr inbounds nuw %struct.ecx_key_st, ptr %22, i32 0, i32 3
  %24 = getelementptr inbounds [57 x i8], ptr %23, i64 0, i64 0
  %25 = load ptr, ptr %7, align 8, !tbaa !31
  %26 = getelementptr inbounds nuw %struct.ecx_key_st, ptr %25, i32 0, i32 3
  %27 = getelementptr inbounds [57 x i8], ptr %26, i64 0, i64 0
  %28 = load ptr, ptr %4, align 8, !tbaa !3
  %29 = getelementptr inbounds nuw %struct.evp_pkey_st, ptr %28, i32 0, i32 2
  %30 = load ptr, ptr %29, align 8, !tbaa !16
  %31 = getelementptr inbounds nuw %struct.evp_pkey_asn1_method_st, ptr %30, i32 0, i32 0
  %32 = load i32, ptr %31, align 8, !tbaa !29
  %33 = icmp eq i32 %32, 1034
  br i1 %33, label %41, label %34

34:                                               ; preds = %21
  %35 = load ptr, ptr %4, align 8, !tbaa !3
  %36 = getelementptr inbounds nuw %struct.evp_pkey_st, ptr %35, i32 0, i32 2
  %37 = load ptr, ptr %36, align 8, !tbaa !16
  %38 = getelementptr inbounds nuw %struct.evp_pkey_asn1_method_st, ptr %37, i32 0, i32 0
  %39 = load i32, ptr %38, align 8, !tbaa !29
  %40 = icmp eq i32 %39, 1087
  br i1 %40, label %41, label %42

41:                                               ; preds = %34, %21
  br label %50

42:                                               ; preds = %34
  %43 = load ptr, ptr %4, align 8, !tbaa !3
  %44 = getelementptr inbounds nuw %struct.evp_pkey_st, ptr %43, i32 0, i32 2
  %45 = load ptr, ptr %44, align 8, !tbaa !16
  %46 = getelementptr inbounds nuw %struct.evp_pkey_asn1_method_st, ptr %45, i32 0, i32 0
  %47 = load i32, ptr %46, align 8, !tbaa !29
  %48 = icmp eq i32 %47, 1035
  %49 = select i1 %48, i32 56, i32 57
  br label %50

50:                                               ; preds = %42, %41
  %51 = phi i32 [ 32, %41 ], [ %49, %42 ]
  %52 = sext i32 %51 to i64
  %53 = call i32 @CRYPTO_memcmp(ptr noundef %24, ptr noundef %27, i64 noundef %52)
  %54 = icmp eq i32 %53, 0
  %55 = zext i1 %54 to i32
  store i32 %55, ptr %3, align 4
  store i32 1, ptr %8, align 4
  br label %56

56:                                               ; preds = %50, %20
  call void @llvm.lifetime.end.p0(i64 8, ptr %7) #4
  call void @llvm.lifetime.end.p0(i64 8, ptr %6) #4
  %57 = load i32, ptr %3, align 4
  ret i32 %57
}