; Function Attrs: nounwind uwtable
define internal range(i32 -2, 2) i32 @ecx_pub_cmp(ptr noundef readonly captures(none) %0, ptr noundef readonly captures(none) %1) #0 {
  %3 = getelementptr inbounds nuw i8, ptr %0, i64 32
  %4 = load ptr, ptr %3, align 8, !tbaa !27
  %5 = getelementptr inbounds nuw i8, ptr %1, i64 32
  %6 = load ptr, ptr %5, align 8, !tbaa !27
  %7 = icmp eq ptr %4, null
  %8 = icmp eq ptr %6, null
  %or.cond = select i1 %7, i1 true, i1 %8
  br i1 %or.cond, label %23, label %9

9:                                                ; preds = %2
  %10 = getelementptr inbounds nuw i8, ptr %4, i64 17
  %11 = getelementptr inbounds nuw i8, ptr %6, i64 17
  %12 = getelementptr inbounds nuw i8, ptr %0, i64 8
  %13 = load ptr, ptr %12, align 8, !tbaa !12
  %14 = load i32, ptr %13, align 8, !tbaa !25
  switch i32 %14, label %15 [
    i32 1034, label %18
    i32 1087, label %18
  ]

15:                                               ; preds = %9
  %16 = icmp eq i32 %14, 1035
  %17 = select i1 %16, i64 56, i64 57
  br label %18

18:                                               ; preds = %9, %9, %15
  %19 = phi i64 [ %17, %15 ], [ 32, %9 ], [ 32, %9 ]
  %20 = tail call i32 @CRYPTO_memcmp(ptr noundef nonnull %10, ptr noundef nonnull %11, i64 noundef %19) #8
  %21 = icmp eq i32 %20, 0
  %22 = zext i1 %21 to i32
  br label %23

23:                                               ; preds = %2, %18
  %.0 = phi i32 [ %22, %18 ], [ -2, %2 ]
  ret i32 %.0
}